; Function Attrs: mustprogress uwtable
define noundef zeroext i1 @_ZNK6google8protobuf11MessageLite25SerializePartialToOstreamEPSo(ptr noundef nonnull align 8 dereferenceable(16) %0, ptr noundef %1) local_unnamed_addr #3 align 2 personality ptr @__gxx_personality_v0 {
  %3 = alloca %"class.google::protobuf::io::OstreamOutputStream", align 8
  call void @_ZN6google8protobuf2io19OstreamOutputStreamC1EPSoi(ptr noundef nonnull align 8 dereferenceable(72) %3, ptr noundef %1, i32 noundef -1)
  %4 = invoke noundef zeroext i1 @_ZNK6google8protobuf11MessageLite32SerializePartialToZeroCopyStreamEPNS0_2io20ZeroCopyOutputStreamE(ptr noundef nonnull align 8 dereferenceable(16) %0, ptr noundef nonnull %3)
          to label %5 unwind label %6

5:                                                ; preds = %2
  call void @_ZN6google8protobuf2io19OstreamOutputStreamD1Ev(ptr noundef nonnull align 8 dereferenceable(72) %3) #15
  ret i1 %4

6:                                                ; preds = %2
  %7 = landingpad { ptr, i32 }
          cleanup
  call void @_ZN6google8protobuf2io19OstreamOutputStreamD1Ev(ptr noundef nonnull align 8 dereferenceable(72) %3) #15
  resume { ptr, i32 } %7
}